; Function Attrs: mustprogress nofree norecurse nosync nounwind willreturn memory(read, inaccessiblemem: none) uwtable
define noundef i64 @_ZN5arrow3ipc14GetPayloadSizeERKNS0_10IpcPayloadERKNS0_15IpcWriteOptionsE(ptr noundef nonnull readonly align 8 captures(none) dereferenceable(88) %0, ptr noundef nonnull readonly align 8 captures(none) dereferenceable(60) %1) local_unnamed_addr #8 {
  %3 = getelementptr inbounds nuw i8, ptr %1, i64 12
  %4 = load i8, ptr %3, align 4, !tbaa !389, !range !189, !noundef !190
  %5 = trunc nuw i8 %4 to i1
  %6 = select i1 %5, i64 4, i64 8
  %7 = getelementptr inbounds nuw i8, ptr %0, i64 8
  %8 = load ptr, ptr %7, align 8, !tbaa !32
  %9 = getelementptr inbounds nuw i8, ptr %8, i64 24
  %10 = load i64, ptr %9, align 8, !tbaa !48
  %11 = add i64 %6, %10
  %sext = shl i64 %11, 32
  %12 = ashr exact i64 %sext, 32
  %13 = getelementptr inbounds nuw i8, ptr %1, i64 8
  %14 = load i32, ptr %13, align 8, !tbaa !394
  %15 = sext i32 %14 to i64
  %16 = add nsw i64 %15, -1
  %17 = add nsw i64 %16, %12
  %18 = srem i64 %17, %15
  %19 = sub nsw i64 %17, %18
  %20 = getelementptr inbounds nuw i8, ptr %0, i64 72
  %21 = load i64, ptr %20, align 8, !tbaa !291
  %sext6 = shl i64 %19, 32
  %22 = ashr exact i64 %sext6, 32
  %23 = add nsw i64 %22, %21
  ret i64 %23
}